target datalayout = "e-m:e-p270:32:32-p271:32:32-p272:64:64-i64:64-i128:128-f80:128-n8:16:32:64-S128"
target triple = "x86_64-pc-linux-gnu"

%"class.std::__cxx11::basic_string" = type { %"struct.std::__cxx11::basic_string<char>::_Alloc_hider", i64, %union.anon }
%"struct.std::__cxx11::basic_string<char>::_Alloc_hider" = type { ptr }
%union.anon = type { i64, [8 x i8] }
%"struct.std::_Vector_base" = type { %"struct.std::_Vector_base<std::__cxx11::basic_string<char>, std::allocator<std::__cxx11::basic_string<char>>>::_Vector_impl" }
%"struct.std::_Vector_base<std::__cxx11::basic_string<char>, std::allocator<std::__cxx11::basic_string<char>>>::_Vector_impl" = type { %"struct.std::_Vector_base<std::__cxx11::basic_string<char>, std::allocator<std::__cxx11::basic_string<char>>>::_Vector_impl_data" }
%"struct.std::_Vector_base<std::__cxx11::basic_string<char>, std::allocator<std::__cxx11::basic_string<char>>>::_Vector_impl_data" = type { ptr, ptr, ptr }
%"class.cmsys::RegularExpression" = type <{ %"class.cmsys::RegularExpressionMatch", i8, i8, [6 x i8], ptr, i64, ptr, i32, [4 x i8] }>
%"class.cmsys::RegularExpressionMatch" = type { [32 x ptr], [32 x ptr], ptr }
%"class.__gnu_cxx::__normal_iterator.634" = type { ptr }

; Function Attrs: mustprogress uwtable
define linkonce_odr dso_local noundef zeroext i1 @_ZN5cmsys17RegularExpression4findEPKc(ptr noundef nonnull align 8 dereferenceable(556) %0, ptr noundef %1) #4 comdat align 2 {
  %3 = alloca ptr, align 8
  %4 = alloca ptr, align 8
  store ptr %0, ptr %3, align 8
  store ptr %1, ptr %4, align 8
  %5 = load ptr, ptr %3, align 8
  %6 = load ptr, ptr %4, align 8
  %7 = getelementptr inbounds %"class.cmsys::RegularExpression", ptr %5, i32 0, i32 0
  %8 = call noundef zeroext i1 @_ZNK5cmsys17RegularExpression4findEPKcRNS_22RegularExpressionMatchE(ptr noundef nonnull align 8 dereferenceable(556) %5, ptr noundef %6, ptr noundef nonnull align 8 dereferenceable(520) %7)
  ret i1 %8
}

; Function Attrs: mustprogress nounwind uwtable
define linkonce_odr dso_local noundef nonnull align 8 dereferenceable(8) ptr @_ZNK9__gnu_cxx17__normal_iteratorIPKNSt7__cxx1112basic_stringIcSt11char_traitsIcESaIcEEESt6vectorIS6_SaIS6_EEE4baseEv(ptr noundef nonnull align 8 dereferenceable(8) %0) #5 comdat align 2 {
  %2 = alloca ptr, align 8
  store ptr %0, ptr %2, align 8
  %3 = load ptr, ptr %2, align 8
  %4 = getelementptr inbounds %"class.__gnu_cxx::__normal_iterator.634", ptr %3, i32 0, i32 0
  ret ptr %4
}

; Function Attrs: mustprogress nounwind uwtable
define linkonce_odr dso_local void @_ZN9__gnu_cxx17__normal_iteratorIPKNSt7__cxx1112basic_stringIcSt11char_traitsIcESaIcEEESt6vectorIS6_SaIS6_EEEC2ERKS8_(ptr noundef nonnull align 8 dereferenceable(8) %0, ptr noundef nonnull align 8 dereferenceable(8) %1) unnamed_addr #5 comdat align 2 {
  %3 = alloca ptr, align 8
  %4 = alloca ptr, align 8
  store ptr %0, ptr %3, align 8
  store ptr %1, ptr %4, align 8
  %5 = load ptr, ptr %3, align 8
  %6 = getelementptr inbounds %"class.__gnu_cxx::__normal_iterator.634", ptr %5, i32 0, i32 0
  %7 = load ptr, ptr %4, align 8
  %8 = load ptr, ptr %7, align 8
  store ptr %8, ptr %6, align 8
  ret void
}

; Function Attrs: mustprogress nounwind uwtable
define linkonce_odr dso_local void @_ZN5cmsys22RegularExpressionMatchC2Ev(ptr noundef nonnull align 8 dereferenceable(520) %0) unnamed_addr #5 comdat align 2 {
  %2 = alloca ptr, align 8
  store ptr %0, ptr %2, align 8
  %3 = load ptr, ptr %2, align 8
  %4 = getelementptr inbounds %"class.cmsys::RegularExpressionMatch", ptr %3, i32 0, i32 0
  call void @llvm.memset.p0.i64(ptr align 8 %4, i8 0, i64 256, i1 false)
  %5 = getelementptr inbounds %"class.cmsys::RegularExpressionMatch", ptr %3, i32 0, i32 1
  call void @llvm.memset.p0.i64(ptr align 8 %5, i8 0, i64 256, i1 false)
  %6 = getelementptr inbounds %"class.cmsys::RegularExpressionMatch", ptr %3, i32 0, i32 2
  store ptr null, ptr %6, align 8
  ret void
}

; Function Attrs: mustprogress nounwind uwtable
define linkonce_odr dso_local noundef nonnull align 8 dereferenceable(8) ptr @_ZN9__gnu_cxx17__normal_iteratorIPKNSt7__cxx1112basic_stringIcSt11char_traitsIcESaIcEEESt6vectorIS6_SaIS6_EEEppEv(ptr noundef nonnull align 8 dereferenceable(8) %0) #5 comdat align 2 {
  %2 = alloca ptr, align 8
  store ptr %0, ptr %2, align 8
  %3 = load ptr, ptr %2, align 8
  %4 = getelementptr inbounds %"class.__gnu_cxx::__normal_iterator.634", ptr %3, i32 0, i32 0
  %5 = load ptr, ptr %4, align 8
  %6 = getelementptr inbounds %"class.std::__cxx11::basic_string", ptr %5, i32 1
  store ptr %6, ptr %4, align 8
  ret ptr %3
}

; Function Attrs: mustprogress nounwind uwtable
define linkonce_odr dso_local void @_ZN5cmsys17RegularExpressionD2Ev(ptr noundef nonnull align 8 dereferenceable(556) %0) unnamed_addr #5 comdat align 2 {
  %2 = alloca ptr, align 8
  store ptr %0, ptr %2, align 8
  %3 = load ptr, ptr %2, align 8
  %4 = getelementptr inbounds %"class.cmsys::RegularExpression", ptr %3, i32 0, i32 6
  %5 = load ptr, ptr %4, align 8
  %6 = icmp eq ptr %5, null
  br i1 %6, label %8, label %7

7:                                                ; preds = %1
  call void @_ZdaPv(ptr noundef %5) #20
  br label %8

8:                                                ; preds = %7, %1
  ret void
}

; Function Attrs: mustprogress uwtable
define linkonce_odr dso_local noundef zeroext i1 @_ZN5cmsys17RegularExpression4findERKNSt7__cxx1112basic_stringIcSt11char_traitsIcESaIcEEE(ptr noundef nonnull align 8 dereferenceable(556) %0, ptr noundef nonnull align 8 dereferenceable(32) %1) #4 comdat align 2 {
  %3 = alloca ptr, align 8
  %4 = alloca ptr, align 8
  store ptr %0, ptr %3, align 8
  store ptr %1, ptr %4, align 8
  %5 = load ptr, ptr %3, align 8
  %6 = load ptr, ptr %4, align 8
  %7 = call noundef ptr @_ZNKSt7__cxx1112basic_stringIcSt11char_traitsIcESaIcEE5c_strEv(ptr noundef nonnull align 8 dereferenceable(32) %6) #3
  %8 = call noundef zeroext i1 @_ZN5cmsys17RegularExpression4findEPKc(ptr noundef nonnull align 8 dereferenceable(556) %5, ptr noundef %7)
  ret i1 %8
}

; Function Attrs: mustprogress nounwind uwtable
define linkonce_odr dso_local noundef nonnull align 8 dereferenceable(32) ptr @_ZNK9__gnu_cxx17__normal_iteratorIPKNSt7__cxx1112basic_stringIcSt11char_traitsIcESaIcEEESt6vectorIS6_SaIS6_EEEdeEv(ptr noundef nonnull align 8 dereferenceable(8) %0) #5 comdat align 2 {
  %2 = alloca ptr, align 8
  store ptr %0, ptr %2, align 8
  %3 = load ptr, ptr %2, align 8
  %4 = getelementptr inbounds %"class.__gnu_cxx::__normal_iterator.634", ptr %3, i32 0, i32 0
  %5 = load ptr, ptr %4, align 8
  ret ptr %5
}

; Function Attrs: mustprogress nounwind uwtable
define linkonce_odr dso_local noundef zeroext i1 @_ZN9__gnu_cxxneIPKNSt7__cxx1112basic_stringIcSt11char_traitsIcESaIcEEESt6vectorIS6_SaIS6_EEEEbRKNS_17__normal_iteratorIT_T0_EESH_(ptr noundef nonnull align 8 dereferenceable(8) %0, ptr noundef nonnull align 8 dereferenceable(8) %1) #5 comdat {
  %3 = alloca ptr, align 8
  %4 = alloca ptr, align 8
  store ptr %0, ptr %3, align 8
  store ptr %1, ptr %4, align 8
  %5 = load ptr, ptr %3, align 8
  %6 = call noundef nonnull align 8 dereferenceable(8) ptr @_ZNK9__gnu_cxx17__normal_iteratorIPKNSt7__cxx1112basic_stringIcSt11char_traitsIcESaIcEEESt6vectorIS6_SaIS6_EEE4baseEv(ptr noundef nonnull align 8 dereferenceable(8) %5) #3
  %7 = load ptr, ptr %6, align 8
  %8 = load ptr, ptr %4, align 8
  %9 = call noundef nonnull align 8 dereferenceable(8) ptr @_ZNK9__gnu_cxx17__normal_iteratorIPKNSt7__cxx1112basic_stringIcSt11char_traitsIcESaIcEEESt6vectorIS6_SaIS6_EEE4baseEv(ptr noundef nonnull align 8 dereferenceable(8) %8) #3
  %10 = load ptr, ptr %9, align 8
  %11 = icmp ne ptr %7, %10
  ret i1 %11
}

; Function Attrs: mustprogress nounwind uwtable
define linkonce_odr dso_local ptr @_ZNKSt6vectorINSt7__cxx1112basic_stringIcSt11char_traitsIcESaIcEEESaIS5_EE3endEv(ptr noundef nonnull align 8 dereferenceable(24) %0) #5 comdat align 2 {
  %2 = alloca %"class.__gnu_cxx::__normal_iterator.634", align 8
  %3 = alloca ptr, align 8
  store ptr %0, ptr %3, align 8
  %4 = load ptr, ptr %3, align 8
  %5 = getelementptr inbounds %"struct.std::_Vector_base", ptr %4, i32 0, i32 0
  %6 = getelementptr inbounds %"struct.std::_Vector_base<std::__cxx11::basic_string<char>, std::allocator<std::__cxx11::basic_string<char>>>::_Vector_impl_data", ptr %5, i32 0, i32 1
  call void @_ZN9__gnu_cxx17__normal_iteratorIPKNSt7__cxx1112basic_stringIcSt11char_traitsIcESaIcEEESt6vectorIS6_SaIS6_EEEC2ERKS8_(ptr noundef nonnull align 8 dereferenceable(8) %2, ptr noundef nonnull align 8 dereferenceable(8) %6) #3
  %7 = getelementptr inbounds %"class.__gnu_cxx::__normal_iterator.634", ptr %2, i32 0, i32 0
  %8 = load ptr, ptr %7, align 8
  ret ptr %8
}

; Function Attrs: mustprogress nounwind uwtable
define linkonce_odr dso_local ptr @_ZNKSt6vectorINSt7__cxx1112basic_stringIcSt11char_traitsIcESaIcEEESaIS5_EE5beginEv(ptr noundef nonnull align 8 dereferenceable(24) %0) #5 comdat align 2 {
  %2 = alloca %"class.__gnu_cxx::__normal_iterator.634", align 8
  %3 = alloca ptr, align 8
  store ptr %0, ptr %3, align 8
  %4 = load ptr, ptr %3, align 8
  %5 = getelementptr inbounds %"struct.std::_Vector_base", ptr %4, i32 0, i32 0
  %6 = getelementptr inbounds %"struct.std::_Vector_base<std::__cxx11::basic_string<char>, std::allocator<std::__cxx11::basic_string<char>>>::_Vector_impl_data", ptr %5, i32 0, i32 0
  call void @_ZN9__gnu_cxx17__normal_iteratorIPKNSt7__cxx1112basic_stringIcSt11char_traitsIcESaIcEEESt6vectorIS6_SaIS6_EEEC2ERKS8_(ptr noundef nonnull align 8 dereferenceable(8) %2, ptr noundef nonnull align 8 dereferenceable(8) %6) #3
  %7 = getelementptr inbounds %"class.__gnu_cxx::__normal_iterator.634", ptr %2, i32 0, i32 0
  %8 = load ptr, ptr %7, align 8
  ret ptr %8
}

; Function Attrs: mustprogress uwtable
define linkonce_odr dso_local void @_ZN5cmsys17RegularExpressionC2EPKc(ptr noundef nonnull align 8 dereferenceable(556) %0, ptr noundef %1) unnamed_addr #4 comdat align 2 {
  %3 = alloca ptr, align 8
  %4 = alloca ptr, align 8
  store ptr %0, ptr %3, align 8
  store ptr %1, ptr %4, align 8
  %5 = load ptr, ptr %3, align 8
  %6 = getelementptr inbounds %"class.cmsys::RegularExpression", ptr %5, i32 0, i32 0
  call void @_ZN5cmsys22RegularExpressionMatchC2Ev(ptr noundef nonnull align 8 dereferenceable(520) %6)
  %7 = getelementptr inbounds %"class.cmsys::RegularExpression", ptr %5, i32 0, i32 1
  store i8 0, ptr %7, align 8
  %8 = getelementptr inbounds %"class.cmsys::RegularExpression", ptr %5, i32 0, i32 2
  store i8 0, ptr %8, align 1
  %9 = getelementptr inbounds %"class.cmsys::RegularExpression", ptr %5, i32 0, i32 4
  store ptr null, ptr %9, align 8
  %10 = getelementptr inbounds %"class.cmsys::RegularExpression", ptr %5, i32 0, i32 6
  store ptr null, ptr %10, align 8
  %11 = getelementptr inbounds %"class.cmsys::RegularExpression", ptr %5, i32 0, i32 7
  store i32 0, ptr %11, align 8
  %12 = load ptr, ptr %4, align 8
  %13 = icmp ne ptr %12, null
  br i1 %13, label %14, label %17

14:                                               ; preds = %2
  %15 = load ptr, ptr %4, align 8
  %16 = call noundef zeroext i1 @_ZN5cmsys17RegularExpression7compileEPKc(ptr noundef nonnull align 8 dereferenceable(556) %5, ptr noundef %15)
  br label %17

17:                                               ; preds = %14, %2
  ret void
}

; Function Attrs: mustprogress uwtable
define dso_local void @_ZNK16cmLocalGenerator20AppendCompileOptionsERNSt7__cxx1112basic_stringIcSt11char_traitsIcESaIcEEERKSt6vectorIS5_SaIS5_EEPKc(ptr noundef nonnull align 8 dereferenceable(824) %0, ptr noundef nonnull align 8 dereferenceable(32) %1, ptr noundef nonnull align 8 dereferenceable(24) %2, ptr noundef %3) #4 align 2 personality ptr @__gxx_personality_v0 {
  %5 = alloca ptr, align 8
  %6 = alloca ptr, align 8
  %7 = alloca ptr, align 8
  %8 = alloca ptr, align 8
  %9 = alloca %"class.cmsys::RegularExpression", align 8
  %10 = alloca ptr, align 8
  %11 = alloca %"class.__gnu_cxx::__normal_iterator.634", align 8
  %12 = alloca %"class.__gnu_cxx::__normal_iterator.634", align 8
  %13 = alloca ptr, align 8
  %14 = alloca ptr, align 8
  %15 = alloca i32, align 4
  %16 = alloca ptr, align 8
  %17 = alloca %"class.__gnu_cxx::__normal_iterator.634", align 8
  %18 = alloca %"class.__gnu_cxx::__normal_iterator.634", align 8
  %19 = alloca ptr, align 8
  store ptr %0, ptr %5, align 8
  store ptr %1, ptr %6, align 8
  store ptr %2, ptr %7, align 8
  store ptr %3, ptr %8, align 8
  %20 = load ptr, ptr %5, align 8
  %21 = load ptr, ptr %8, align 8
  %22 = icmp ne ptr %21, null
  br i1 %22, label %23, label %54

23:                                               ; preds = %4
  %24 = load ptr, ptr %8, align 8
  call void @_ZN5cmsys17RegularExpressionC2EPKc(ptr noundef nonnull align 8 dereferenceable(556) %9, ptr noundef %24)
  %25 = load ptr, ptr %7, align 8
  store ptr %25, ptr %10, align 8
  %26 = load ptr, ptr %10, align 8
  %27 = call ptr @_ZNKSt6vectorINSt7__cxx1112basic_stringIcSt11char_traitsIcESaIcEEESaIS5_EE5beginEv(ptr noundef nonnull align 8 dereferenceable(24) %26) #3
  %28 = getelementptr inbounds %"class.__gnu_cxx::__normal_iterator.634", ptr %11, i32 0, i32 0
  store ptr %27, ptr %28, align 8
  %29 = load ptr, ptr %10, align 8
  %30 = call ptr @_ZNKSt6vectorINSt7__cxx1112basic_stringIcSt11char_traitsIcESaIcEEESaIS5_EE3endEv(ptr noundef nonnull align 8 dereferenceable(24) %29) #3
  %31 = getelementptr inbounds %"class.__gnu_cxx::__normal_iterator.634", ptr %12, i32 0, i32 0
  store ptr %30, ptr %31, align 8
  br label %32

32:                                               ; preds = %51, %23
  %33 = call noundef zeroext i1 @_ZN9__gnu_cxxneIPKNSt7__cxx1112basic_stringIcSt11char_traitsIcESaIcEEESt6vectorIS6_SaIS6_EEEEbRKNS_17__normal_iteratorIT_T0_EESH_(ptr noundef nonnull align 8 dereferenceable(8) %11, ptr noundef nonnull align 8 dereferenceable(8) %12) #3
  br i1 %33, label %34, label %53

34:                                               ; preds = %32
  %35 = call noundef nonnull align 8 dereferenceable(32) ptr @_ZNK9__gnu_cxx17__normal_iteratorIPKNSt7__cxx1112basic_stringIcSt11char_traitsIcESaIcEEESt6vectorIS6_SaIS6_EEEdeEv(ptr noundef nonnull align 8 dereferenceable(8) %11) #3
  store ptr %35, ptr %13, align 8
  %36 = load ptr, ptr %13, align 8
  %37 = invoke noundef zeroext i1 @_ZN5cmsys17RegularExpression4findERKNSt7__cxx1112basic_stringIcSt11char_traitsIcESaIcEEE(ptr noundef nonnull align 8 dereferenceable(556) %9, ptr noundef nonnull align 8 dereferenceable(32) %36)
          to label %38 unwind label %46

38:                                               ; preds = %34
  br i1 %37, label %39, label %50

39:                                               ; preds = %38
  %40 = load ptr, ptr %6, align 8
  %41 = load ptr, ptr %13, align 8
  %42 = load ptr, ptr %20, align 8
  %43 = getelementptr inbounds ptr, ptr %42, i64 9
  %44 = load ptr, ptr %43, align 8
  invoke void %44(ptr noundef nonnull align 8 dereferenceable(824) %20, ptr noundef nonnull align 8 dereferenceable(32) %40, ptr noundef nonnull align 8 dereferenceable(32) %41)
          to label %45 unwind label %46

45:                                               ; preds = %39
  br label %50

46:                                               ; preds = %39, %34
  %47 = landingpad { ptr, i32 }
          cleanup
  %48 = extractvalue { ptr, i32 } %47, 0
  store ptr %48, ptr %14, align 8
  %49 = extractvalue { ptr, i32 } %47, 1
  store i32 %49, ptr %15, align 4
  call void @_ZN5cmsys17RegularExpressionD2Ev(ptr noundef nonnull align 8 dereferenceable(556) %9) #3
  br label %75

50:                                               ; preds = %45, %38
  br label %51

51:                                               ; preds = %50
  %52 = call noundef nonnull align 8 dereferenceable(8) ptr @_ZN9__gnu_cxx17__normal_iteratorIPKNSt7__cxx1112basic_stringIcSt11char_traitsIcESaIcEEESt6vectorIS6_SaIS6_EEEppEv(ptr noundef nonnull align 8 dereferenceable(8) %11) #3
  br label %32

53:                                               ; preds = %32
  call void @_ZN5cmsys17RegularExpressionD2Ev(ptr noundef nonnull align 8 dereferenceable(556) %9) #3
  br label %74

54:                                               ; preds = %4
  %55 = load ptr, ptr %7, align 8
  store ptr %55, ptr %16, align 8
  %56 = load ptr, ptr %16, align 8
  %57 = call ptr @_ZNKSt6vectorINSt7__cxx1112basic_stringIcSt11char_traitsIcESaIcEEESaIS5_EE5beginEv(ptr noundef nonnull align 8 dereferenceable(24) %56) #3
  %58 = getelementptr inbounds %"class.__gnu_cxx::__normal_iterator.634", ptr %17, i32 0, i32 0
  store ptr %57, ptr %58, align 8
  %59 = load ptr, ptr %16, align 8
  %60 = call ptr @_ZNKSt6vectorINSt7__cxx1112basic_stringIcSt11char_traitsIcESaIcEEESaIS5_EE3endEv(ptr noundef nonnull align 8 dereferenceable(24) %59) #3
  %61 = getelementptr inbounds %"class.__gnu_cxx::__normal_iterator.634", ptr %18, i32 0, i32 0
  store ptr %60, ptr %61, align 8
  br label %62

62:                                               ; preds = %71, %54
  %63 = call noundef zeroext i1 @_ZN9__gnu_cxxneIPKNSt7__cxx1112basic_stringIcSt11char_traitsIcESaIcEEESt6vectorIS6_SaIS6_EEEEbRKNS_17__normal_iteratorIT_T0_EESH_(ptr noundef nonnull align 8 dereferenceable(8) %17, ptr noundef nonnull align 8 dereferenceable(8) %18) #3
  br i1 %63, label %64, label %73

64:                                               ; preds = %62
  %65 = call noundef nonnull align 8 dereferenceable(32) ptr @_ZNK9__gnu_cxx17__normal_iteratorIPKNSt7__cxx1112basic_stringIcSt11char_traitsIcESaIcEEESt6vectorIS6_SaIS6_EEEdeEv(ptr noundef nonnull align 8 dereferenceable(8) %17) #3
  store ptr %65, ptr %19, align 8
  %66 = load ptr, ptr %6, align 8
  %67 = load ptr, ptr %19, align 8
  %68 = load ptr, ptr %20, align 8
  %69 = getelementptr inbounds ptr, ptr %68, i64 9
  %70 = load ptr, ptr %69, align 8
  call void %70(ptr noundef nonnull align 8 dereferenceable(824) %20, ptr noundef nonnull align 8 dereferenceable(32) %66, ptr noundef nonnull align 8 dereferenceable(32) %67)
  br label %71

71:                                               ; preds = %64
  %72 = call noundef nonnull align 8 dereferenceable(8) ptr @_ZN9__gnu_cxx17__normal_iteratorIPKNSt7__cxx1112basic_stringIcSt11char_traitsIcESaIcEEESt6vectorIS6_SaIS6_EEEppEv(ptr noundef nonnull align 8 dereferenceable(8) %17) #3
  br label %62

73:                                               ; preds = %62
  br label %74

74:                                               ; preds = %73, %53
  ret void

75:                                               ; preds = %46
  %76 = load ptr, ptr %14, align 8
  %77 = load i32, ptr %15, align 4
  %78 = insertvalue { ptr, i32 } poison, ptr %76, 0
  %79 = insertvalue { ptr, i32 } %78, i32 %77, 1
  resume { ptr, i32 } %79
}