; Function Attrs: mustprogress uwtable
define dso_local void @_ZNK16cmLocalGenerator20AppendCompileOptionsERNSt7__cxx1112basic_stringIcSt11char_traitsIcESaIcEEERKSt6vectorIS5_SaIS5_EEPKc(ptr noundef nonnull align 8 dereferenceable(824) %0, ptr noundef nonnull align 8 dereferenceable(32) %1, ptr nocapture noundef nonnull readonly align 8 dereferenceable(24) %2, ptr noundef %3) local_unnamed_addr #3 align 2 personality ptr @__gxx_personality_v0 {
  %5 = alloca %"class.cmsys::RegularExpression", align 8
  %.not = icmp eq ptr %3, null
  br i1 %.not, label %29, label %_ZN5cmsys17RegularExpressionC2EPKc.exit

_ZN5cmsys17RegularExpressionC2EPKc.exit:          ; preds = %4
  %6 = getelementptr inbounds i8, ptr %5, i64 528
  store ptr null, ptr %6, align 8
  %7 = getelementptr inbounds i8, ptr %5, i64 544
  store ptr null, ptr %7, align 8
  %8 = getelementptr inbounds i8, ptr %5, i64 552
  store i32 0, ptr %8, align 8
  call void @llvm.memset.p0.i64(ptr noundef nonnull align 8 dereferenceable(522) %5, i8 0, i64 522, i1 false)
  %9 = call noundef zeroext i1 @_ZN5cmsys17RegularExpression7compileEPKc(ptr noundef nonnull align 8 dereferenceable(556) %5, ptr noundef nonnull %3)
  %10 = load ptr, ptr %2, align 8
  %11 = getelementptr inbounds i8, ptr %2, i64 8
  %12 = load ptr, ptr %11, align 8
  %.not2325 = icmp eq ptr %10, %12
  br i1 %.not2325, label %._crit_edge, label %.lr.ph

.lr.ph:                                           ; preds = %_ZN5cmsys17RegularExpressionC2EPKc.exit, %24
  %.sroa.020.026 = phi ptr [ %25, %24 ], [ %10, %_ZN5cmsys17RegularExpressionC2EPKc.exit ]
  %13 = call noundef ptr @_ZNKSt7__cxx1112basic_stringIcSt11char_traitsIcESaIcEE5c_strEv(ptr noundef nonnull align 8 dereferenceable(32) %.sroa.020.026) #23
  %14 = invoke noundef zeroext i1 @_ZNK5cmsys17RegularExpression4findEPKcRNS_22RegularExpressionMatchE(ptr noundef nonnull align 8 dereferenceable(556) %5, ptr noundef %13, ptr noundef nonnull align 8 dereferenceable(520) %5)
          to label %_ZN5cmsys17RegularExpression4findERKNSt7__cxx1112basic_stringIcSt11char_traitsIcESaIcEEE.exit unwind label %19

_ZN5cmsys17RegularExpression4findERKNSt7__cxx1112basic_stringIcSt11char_traitsIcESaIcEEE.exit: ; preds = %.lr.ph
  br i1 %14, label %15, label %24

15:                                               ; preds = %_ZN5cmsys17RegularExpression4findERKNSt7__cxx1112basic_stringIcSt11char_traitsIcESaIcEEE.exit
  %16 = load ptr, ptr %0, align 8
  %17 = getelementptr inbounds i8, ptr %16, i64 72
  %18 = load ptr, ptr %17, align 8
  invoke void %18(ptr noundef nonnull align 8 dereferenceable(824) %0, ptr noundef nonnull align 8 dereferenceable(32) %1, ptr noundef nonnull align 8 dereferenceable(32) %.sroa.020.026)
          to label %24 unwind label %19

19:                                               ; preds = %.lr.ph, %15
  %20 = landingpad { ptr, i32 }
          cleanup
  %21 = load ptr, ptr %7, align 8
  %22 = icmp eq ptr %21, null
  br i1 %22, label %_ZN5cmsys17RegularExpressionD2Ev.exit, label %23

23:                                               ; preds = %19
  call void @_ZdaPv(ptr noundef nonnull %21) #25
  br label %_ZN5cmsys17RegularExpressionD2Ev.exit

_ZN5cmsys17RegularExpressionD2Ev.exit:            ; preds = %19, %23
  resume { ptr, i32 } %20

24:                                               ; preds = %_ZN5cmsys17RegularExpression4findERKNSt7__cxx1112basic_stringIcSt11char_traitsIcESaIcEEE.exit, %15
  %25 = getelementptr inbounds i8, ptr %.sroa.020.026, i64 32
  %.not23 = icmp eq ptr %25, %12
  br i1 %.not23, label %._crit_edge, label %.lr.ph

._crit_edge:                                      ; preds = %24, %_ZN5cmsys17RegularExpressionC2EPKc.exit
  %26 = load ptr, ptr %7, align 8
  %27 = icmp eq ptr %26, null
  br i1 %27, label %_ZN5cmsys17RegularExpressionD2Ev.exit15, label %28

28:                                               ; preds = %._crit_edge
  call void @_ZdaPv(ptr noundef nonnull %26) #25
  br label %_ZN5cmsys17RegularExpressionD2Ev.exit15

29:                                               ; preds = %4
  %30 = load ptr, ptr %2, align 8
  %31 = getelementptr inbounds i8, ptr %2, i64 8
  %32 = load ptr, ptr %31, align 8
  %.not2427 = icmp eq ptr %30, %32
  br i1 %.not2427, label %_ZN5cmsys17RegularExpressionD2Ev.exit15, label %.lr.ph30

.lr.ph30:                                         ; preds = %29, %.lr.ph30
  %.sroa.016.028 = phi ptr [ %36, %.lr.ph30 ], [ %30, %29 ]
  %33 = load ptr, ptr %0, align 8
  %34 = getelementptr inbounds i8, ptr %33, i64 72
  %35 = load ptr, ptr %34, align 8
  tail call void %35(ptr noundef nonnull align 8 dereferenceable(824) %0, ptr noundef nonnull align 8 dereferenceable(32) %1, ptr noundef nonnull align 8 dereferenceable(32) %.sroa.016.028)
  %36 = getelementptr inbounds i8, ptr %.sroa.016.028, i64 32
  %.not24 = icmp eq ptr %36, %32
  br i1 %.not24, label %_ZN5cmsys17RegularExpressionD2Ev.exit15, label %.lr.ph30

_ZN5cmsys17RegularExpressionD2Ev.exit15:          ; preds = %.lr.ph30, %29, %28, %._crit_edge
  ret void
}